target datalayout = "e-m:e-p270:32:32-p271:32:32-p272:64:64-i64:64-i128:128-f80:128-n8:16:32:64-S128"
target triple = "x86_64-pc-linux-gnu"

%"class.pxrInternal_v0_24__pxrReserved__::TfBigRWMutex" = type <{ %"class.std::unique_ptr", %"struct.std::atomic", [7 x i8] }>
%"class.std::unique_ptr" = type { %"struct.std::__uniq_ptr_data" }
%"struct.std::__uniq_ptr_data" = type { %"class.std::__uniq_ptr_impl" }
%"class.std::__uniq_ptr_impl" = type { %"class.std::tuple" }
%"class.std::tuple" = type { %"struct.std::_Tuple_impl" }
%"struct.std::_Tuple_impl" = type { %"struct.std::_Head_base.1" }
%"struct.std::_Head_base.1" = type { ptr }
%"struct.std::atomic" = type { %"struct.std::__atomic_base" }
%"struct.std::__atomic_base" = type { i8 }
%"struct.pxrInternal_v0_24__pxrReserved__::TfBigRWMutex::_LockState" = type { %"class.pxrInternal_v0_24__pxrReserved__::TfSpinRWMutex", [60 x i8] }
%"class.pxrInternal_v0_24__pxrReserved__::TfSpinRWMutex" = type { %"struct.std::atomic.2" }
%"struct.std::atomic.2" = type { %"struct.std::__atomic_base.3" }
%"struct.std::__atomic_base.3" = type { i32 }

; Function Attrs: mustprogress nounwind uwtable
define linkonce_odr noundef nonnull align 8 dereferenceable(8) ptr @_ZNSt10_Head_baseILm0EPN32pxrInternal_v0_24__pxrReserved__12TfBigRWMutex10_LockStateELb0EE7_M_headERKS4_(ptr noundef nonnull align 8 dereferenceable(8) %0) #1 comdat align 2 {
  %2 = alloca ptr, align 8
  store ptr %0, ptr %2, align 8
  %3 = load ptr, ptr %2, align 8
  %4 = getelementptr inbounds nuw %"struct.std::_Head_base.1", ptr %3, i32 0, i32 0
  ret ptr %4
}

; Function Attrs: mustprogress nounwind uwtable
define linkonce_odr noundef nonnull align 8 dereferenceable(8) ptr @_ZNSt11_Tuple_implILm0EJPN32pxrInternal_v0_24__pxrReserved__12TfBigRWMutex10_LockStateESt14default_deleteIA_S2_EEE7_M_headERKS7_(ptr noundef nonnull align 8 dereferenceable(8) %0) #1 comdat align 2 {
  %2 = alloca ptr, align 8
  store ptr %0, ptr %2, align 8
  %3 = load ptr, ptr %2, align 8
  %4 = call noundef nonnull align 8 dereferenceable(8) ptr @_ZNSt10_Head_baseILm0EPN32pxrInternal_v0_24__pxrReserved__12TfBigRWMutex10_LockStateELb0EE7_M_headERKS4_(ptr noundef nonnull align 8 dereferenceable(8) %3) #9
  ret ptr %4
}

; Function Attrs: mustprogress nounwind uwtable
define linkonce_odr noundef nonnull align 8 dereferenceable(8) ptr @_ZSt12__get_helperILm0EPN32pxrInternal_v0_24__pxrReserved__12TfBigRWMutex10_LockStateEJSt14default_deleteIA_S2_EEERKT0_RKSt11_Tuple_implIXT_EJS7_DpT1_EE(ptr noundef nonnull align 8 dereferenceable(8) %0) #1 comdat {
  %2 = alloca ptr, align 8
  store ptr %0, ptr %2, align 8
  %3 = load ptr, ptr %2, align 8
  %4 = call noundef nonnull align 8 dereferenceable(8) ptr @_ZNSt11_Tuple_implILm0EJPN32pxrInternal_v0_24__pxrReserved__12TfBigRWMutex10_LockStateESt14default_deleteIA_S2_EEE7_M_headERKS7_(ptr noundef nonnull align 8 dereferenceable(8) %3) #9
  ret ptr %4
}

; Function Attrs: mustprogress nounwind uwtable
define linkonce_odr noundef nonnull align 8 dereferenceable(8) ptr @_ZSt3getILm0EJPN32pxrInternal_v0_24__pxrReserved__12TfBigRWMutex10_LockStateESt14default_deleteIA_S2_EEERKNSt13tuple_elementIXT_ESt5tupleIJDpT0_EEE4typeERKSB_(ptr noundef nonnull align 8 dereferenceable(8) %0) #1 comdat {
  %2 = alloca ptr, align 8
  store ptr %0, ptr %2, align 8
  %3 = load ptr, ptr %2, align 8
  %4 = call noundef nonnull align 8 dereferenceable(8) ptr @_ZSt12__get_helperILm0EPN32pxrInternal_v0_24__pxrReserved__12TfBigRWMutex10_LockStateEJSt14default_deleteIA_S2_EEERKT0_RKSt11_Tuple_implIXT_EJS7_DpT1_EE(ptr noundef nonnull align 8 dereferenceable(8) %3) #9
  ret ptr %4
}

; Function Attrs: mustprogress nounwind uwtable
define linkonce_odr noundef ptr @_ZNKSt15__uniq_ptr_implIN32pxrInternal_v0_24__pxrReserved__12TfBigRWMutex10_LockStateESt14default_deleteIA_S2_EE6_M_ptrEv(ptr noundef nonnull align 8 dereferenceable(8) %0) #1 comdat align 2 {
  %2 = alloca ptr, align 8
  store ptr %0, ptr %2, align 8
  %3 = load ptr, ptr %2, align 8
  %4 = getelementptr inbounds nuw %"class.std::__uniq_ptr_impl", ptr %3, i32 0, i32 0
  %5 = call noundef nonnull align 8 dereferenceable(8) ptr @_ZSt3getILm0EJPN32pxrInternal_v0_24__pxrReserved__12TfBigRWMutex10_LockStateESt14default_deleteIA_S2_EEERKNSt13tuple_elementIXT_ESt5tupleIJDpT0_EEE4typeERKSB_(ptr noundef nonnull align 8 dereferenceable(8) %4) #9
  %6 = load ptr, ptr %5, align 8
  ret ptr %6
}

; Function Attrs: mustprogress nounwind uwtable
define linkonce_odr noundef ptr @_ZNKSt10unique_ptrIA_N32pxrInternal_v0_24__pxrReserved__12TfBigRWMutex10_LockStateESt14default_deleteIS3_EE3getEv(ptr noundef nonnull align 8 dereferenceable(8) %0) #1 comdat align 2 {
  %2 = alloca ptr, align 8
  store ptr %0, ptr %2, align 8
  %3 = load ptr, ptr %2, align 8
  %4 = getelementptr inbounds nuw %"class.std::unique_ptr", ptr %3, i32 0, i32 0
  %5 = call noundef ptr @_ZNKSt15__uniq_ptr_implIN32pxrInternal_v0_24__pxrReserved__12TfBigRWMutex10_LockStateESt14default_deleteIA_S2_EE6_M_ptrEv(ptr noundef nonnull align 8 dereferenceable(8) %4) #9
  ret ptr %5
}

; Function Attrs: mustprogress nounwind uwtable
define linkonce_odr noundef i32 @_ZStanSt12memory_orderSt23__memory_order_modifier(i32 noundef %0, i32 noundef %1) #1 comdat {
  %3 = alloca i32, align 4
  %4 = alloca i32, align 4
  store i32 %0, ptr %3, align 4
  store i32 %1, ptr %4, align 4
  %5 = load i32, ptr %3, align 4
  %6 = load i32, ptr %4, align 4
  %7 = and i32 %5, %6
  ret i32 %7
}

; Function Attrs: noreturn nounwind uwtable
define linkonce_odr hidden void @__clang_call_terminate(ptr noundef %0) #3 comdat {
  %2 = call ptr @__cxa_begin_catch(ptr %0) #9
  call void @_ZSt9terminatev() #12
  unreachable
}

; Function Attrs: mustprogress nounwind uwtable
define internal noundef i32 @_ZL15__gthread_yieldv() #1 {
  %1 = call i32 @sched_yield() #9
  ret i32 %1
}

; Function Attrs: mustprogress uwtable
define linkonce_odr noundef i32 @_ZN32pxrInternal_v0_24__pxrReserved__13TfSpinRWMutex23_StagedAcquireWriteStepENS0_24_StagedAcquireWriteStateE(ptr noundef nonnull align 4 dereferenceable(4) %0, i32 noundef %1) #0 comdat align 2 {
  %3 = alloca ptr, align 8
  %4 = alloca i32, align 4
  %5 = alloca i32, align 4
  %6 = alloca i32, align 4
  %7 = alloca i32, align 4
  %8 = alloca i32, align 4
  %9 = alloca ptr, align 8
  %10 = alloca i32, align 4
  %11 = alloca i32, align 4
  store ptr %0, ptr %9, align 8
  store i32 %1, ptr %10, align 4
  %12 = load ptr, ptr %9, align 8
  %13 = load i32, ptr %10, align 4
  switch i32 %13, label %46 [
    i32 0, label %14
    i32 1, label %44
    i32 2, label %45
  ]

14:                                               ; preds = %2
  %15 = getelementptr inbounds nuw %"class.pxrInternal_v0_24__pxrReserved__::TfSpinRWMutex", ptr %12, i32 0, i32 0
  store ptr %15, ptr %3, align 8
  store i32 1, ptr %4, align 4
  store i32 5, ptr %5, align 4
  %16 = load ptr, ptr %3, align 8
  %17 = load i32, ptr %5, align 4
  %18 = load i32, ptr %4, align 4
  store i32 %18, ptr %6, align 4
  switch i32 %17, label %19 [
    i32 1, label %22
    i32 2, label %22
    i32 3, label %25
    i32 4, label %28
    i32 5, label %31
  ]

19:                                               ; preds = %14
  %20 = load i32, ptr %6, align 4
  %21 = atomicrmw or ptr %16, i32 %20 monotonic, align 4
  store i32 %21, ptr %7, align 4
  br label %34

22:                                               ; preds = %14, %14
  %23 = load i32, ptr %6, align 4
  %24 = atomicrmw or ptr %16, i32 %23 acquire, align 4
  store i32 %24, ptr %7, align 4
  br label %34

25:                                               ; preds = %14
  %26 = load i32, ptr %6, align 4
  %27 = atomicrmw or ptr %16, i32 %26 release, align 4
  store i32 %27, ptr %7, align 4
  br label %34

28:                                               ; preds = %14
  %29 = load i32, ptr %6, align 4
  %30 = atomicrmw or ptr %16, i32 %29 acq_rel, align 4
  store i32 %30, ptr %7, align 4
  br label %34

31:                                               ; preds = %14
  %32 = load i32, ptr %6, align 4
  %33 = atomicrmw or ptr %16, i32 %32 seq_cst, align 4
  store i32 %33, ptr %7, align 4
  br label %34

34:                                               ; preds = %31, %28, %25, %22, %19
  %35 = load i32, ptr %7, align 4
  store i32 %35, ptr %11, align 4
  %36 = load i32, ptr %11, align 4
  %37 = and i32 %36, 1
  %38 = icmp ne i32 %37, 0
  br i1 %38, label %43, label %39

39:                                               ; preds = %34
  %40 = load i32, ptr %11, align 4
  %41 = icmp eq i32 %40, 0
  %42 = select i1 %41, i32 2, i32 1
  store i32 %42, ptr %8, align 4
  br label %47

43:                                               ; preds = %34
  store i32 0, ptr %8, align 4
  br label %47

44:                                               ; preds = %2
  call void @_ZNK32pxrInternal_v0_24__pxrReserved__13TfSpinRWMutex15_WaitForReadersEv(ptr noundef nonnull align 4 dereferenceable(4) %12)
  store i32 2, ptr %8, align 4
  br label %47

45:                                               ; preds = %2
  br label %46

46:                                               ; preds = %45, %2
  store i32 2, ptr %8, align 4
  br label %47

47:                                               ; preds = %46, %44, %43, %39
  %48 = load i32, ptr %8, align 4
  ret i32 %48
}

; Function Attrs: mustprogress nounwind uwtable
define linkonce_odr noundef nonnull align 4 dereferenceable(64) ptr @_ZNKSt10unique_ptrIA_N32pxrInternal_v0_24__pxrReserved__12TfBigRWMutex10_LockStateESt14default_deleteIS3_EEixEm(ptr noundef nonnull align 8 dereferenceable(8) %0, i64 noundef %1) #1 comdat align 2 {
  %3 = alloca ptr, align 8
  %4 = alloca i64, align 8
  store ptr %0, ptr %3, align 8
  store i64 %1, ptr %4, align 8
  %5 = load ptr, ptr %3, align 8
  br label %6

6:                                                ; preds = %2
  br label %7

7:                                                ; preds = %6
  %8 = call noundef ptr @_ZNKSt10unique_ptrIA_N32pxrInternal_v0_24__pxrReserved__12TfBigRWMutex10_LockStateESt14default_deleteIS3_EE3getEv(ptr noundef nonnull align 8 dereferenceable(8) %5) #9
  %9 = load i64, ptr %4, align 8
  %10 = getelementptr inbounds %"struct.pxrInternal_v0_24__pxrReserved__::TfBigRWMutex::_LockState", ptr %8, i64 %9
  ret ptr %10
}

; Function Attrs: mustprogress nounwind uwtable
define linkonce_odr noundef zeroext i1 @_ZNKSt6atomicIbEcvbEv(ptr noundef nonnull align 1 dereferenceable(1) %0) #1 comdat align 2 personality ptr @__gxx_personality_v0 {
  %2 = alloca ptr, align 8
  %3 = alloca i32, align 4
  %4 = alloca i32, align 4
  %5 = alloca i8, align 1
  %6 = alloca ptr, align 8
  store ptr %0, ptr %6, align 8
  %7 = load ptr, ptr %6, align 8
  %8 = getelementptr inbounds nuw %"struct.std::atomic", ptr %7, i32 0, i32 0
  store ptr %8, ptr %2, align 8
  store i32 5, ptr %3, align 4
  %9 = load ptr, ptr %2, align 8
  %10 = load i32, ptr %3, align 4
  %11 = invoke noundef i32 @_ZStanSt12memory_orderSt23__memory_order_modifier(i32 noundef %10, i32 noundef 65535)
          to label %12 unwind label %20

12:                                               ; preds = %1
  store i32 %11, ptr %4, align 4
  %13 = load i32, ptr %3, align 4
  switch i32 %13, label %14 [
    i32 1, label %16
    i32 2, label %16
    i32 5, label %18
  ]

14:                                               ; preds = %12
  %15 = load atomic i8, ptr %9 monotonic, align 1
  store i8 %15, ptr %5, align 1
  br label %23

16:                                               ; preds = %12, %12
  %17 = load atomic i8, ptr %9 acquire, align 1
  store i8 %17, ptr %5, align 1
  br label %23

18:                                               ; preds = %12
  %19 = load atomic i8, ptr %9 seq_cst, align 1
  store i8 %19, ptr %5, align 1
  br label %23

20:                                               ; preds = %1
  %21 = landingpad { ptr, i32 }
          catch ptr null
  %22 = extractvalue { ptr, i32 } %21, 0
  call void @__clang_call_terminate(ptr %22) #12
  unreachable

23:                                               ; preds = %18, %16, %14
  %24 = load i8, ptr %5, align 1
  %25 = trunc i8 %24 to i1
  ret i1 %25
}

; Function Attrs: mustprogress nounwind uwtable
define linkonce_odr void @_ZNSt11this_thread5yieldEv() #1 comdat personality ptr @__gxx_personality_v0 {
  %1 = invoke noundef i32 @_ZL15__gthread_yieldv()
          to label %2 unwind label %3

2:                                                ; preds = %0
  ret void

3:                                                ; preds = %0
  %4 = landingpad { ptr, i32 }
          catch ptr null
  %5 = extractvalue { ptr, i32 } %4, 0
  call void @__clang_call_terminate(ptr %5) #12
  unreachable
}

; Function Attrs: mustprogress nounwind uwtable
define linkonce_odr noundef zeroext i1 @_ZNSt6atomicIbE8exchangeEbSt12memory_order(ptr noundef nonnull align 1 dereferenceable(1) %0, i1 noundef zeroext %1, i32 noundef %2) #1 comdat align 2 {
  %4 = alloca ptr, align 8
  %5 = alloca i8, align 1
  %6 = alloca i32, align 4
  %7 = alloca i8, align 1
  %8 = alloca i8, align 1
  %9 = alloca ptr, align 8
  %10 = alloca i8, align 1
  %11 = alloca i32, align 4
  store ptr %0, ptr %9, align 8
  %12 = zext i1 %1 to i8
  store i8 %12, ptr %10, align 1
  store i32 %2, ptr %11, align 4
  %13 = load ptr, ptr %9, align 8
  %14 = getelementptr inbounds nuw %"struct.std::atomic", ptr %13, i32 0, i32 0
  %15 = load i8, ptr %10, align 1
  %16 = trunc i8 %15 to i1
  %17 = load i32, ptr %11, align 4
  store ptr %14, ptr %4, align 8
  %18 = zext i1 %16 to i8
  store i8 %18, ptr %5, align 1
  store i32 %17, ptr %6, align 4
  %19 = load ptr, ptr %4, align 8
  %20 = load i32, ptr %6, align 4
  %21 = load i8, ptr %5, align 1
  %22 = trunc i8 %21 to i1
  %23 = zext i1 %22 to i8
  store i8 %23, ptr %7, align 1
  switch i32 %20, label %24 [
    i32 1, label %27
    i32 2, label %27
    i32 3, label %30
    i32 4, label %33
    i32 5, label %36
  ]

24:                                               ; preds = %3
  %25 = load i8, ptr %7, align 1
  %26 = atomicrmw xchg ptr %19, i8 %25 monotonic, align 1
  store i8 %26, ptr %8, align 1
  br label %39

27:                                               ; preds = %3, %3
  %28 = load i8, ptr %7, align 1
  %29 = atomicrmw xchg ptr %19, i8 %28 acquire, align 1
  store i8 %29, ptr %8, align 1
  br label %39

30:                                               ; preds = %3
  %31 = load i8, ptr %7, align 1
  %32 = atomicrmw xchg ptr %19, i8 %31 release, align 1
  store i8 %32, ptr %8, align 1
  br label %39

33:                                               ; preds = %3
  %34 = load i8, ptr %7, align 1
  %35 = atomicrmw xchg ptr %19, i8 %34 acq_rel, align 1
  store i8 %35, ptr %8, align 1
  br label %39

36:                                               ; preds = %3
  %37 = load i8, ptr %7, align 1
  %38 = atomicrmw xchg ptr %19, i8 %37 seq_cst, align 1
  store i8 %38, ptr %8, align 1
  br label %39

39:                                               ; preds = %36, %33, %30, %27, %24
  %40 = load i8, ptr %8, align 1
  %41 = trunc i8 %40 to i1
  ret i1 %41
}

; Function Attrs: mustprogress uwtable
define void @_ZN32pxrInternal_v0_24__pxrReserved__12TfBigRWMutex13_AcquireWriteEv(ptr noundef nonnull align 8 dereferenceable(9) %0) #0 align 2 {
  %2 = alloca ptr, align 8
  %3 = alloca [16 x i32], align 16
  %4 = alloca i8, align 1
  %5 = alloca i32, align 4
  store ptr %0, ptr %2, align 8
  %6 = load ptr, ptr %2, align 8
  br label %7

7:                                                ; preds = %17, %1
  %8 = getelementptr inbounds nuw %"class.pxrInternal_v0_24__pxrReserved__::TfBigRWMutex", ptr %6, i32 0, i32 1
  %9 = call noundef zeroext i1 @_ZNSt6atomicIbE8exchangeEbSt12memory_order(ptr noundef nonnull align 1 dereferenceable(1) %8, i1 noundef zeroext true, i32 noundef 5) #9
  %10 = zext i1 %9 to i32
  %11 = icmp eq i32 %10, 1
  br i1 %11, label %12, label %18

12:                                               ; preds = %7
  br label %13

13:                                               ; preds = %14, %12
  call void @_ZNSt11this_thread5yieldEv() #9
  br label %14

14:                                               ; preds = %13
  %15 = getelementptr inbounds nuw %"class.pxrInternal_v0_24__pxrReserved__::TfBigRWMutex", ptr %6, i32 0, i32 1
  %16 = call noundef zeroext i1 @_ZNKSt6atomicIbEcvbEv(ptr noundef nonnull align 1 dereferenceable(1) %15) #9
  br i1 %16, label %13, label %17, !llvm.loop !6

17:                                               ; preds = %14
  br label %7, !llvm.loop !7

18:                                               ; preds = %7
  call void @llvm.memset.p0.i64(ptr align 16 %3, i8 0, i64 64, i1 false)
  br label %19

19:                                               ; preds = %53, %18
  store i8 1, ptr %4, align 1
  store i32 0, ptr %5, align 4
  br label %20

20:                                               ; preds = %49, %19
  %21 = load i32, ptr %5, align 4
  %22 = icmp ne i32 %21, 16
  br i1 %22, label %23, label %52

23:                                               ; preds = %20
  %24 = getelementptr inbounds nuw %"class.pxrInternal_v0_24__pxrReserved__::TfBigRWMutex", ptr %6, i32 0, i32 0
  %25 = load i32, ptr %5, align 4
  %26 = sext i32 %25 to i64
  %27 = call noundef nonnull align 4 dereferenceable(64) ptr @_ZNKSt10unique_ptrIA_N32pxrInternal_v0_24__pxrReserved__12TfBigRWMutex10_LockStateESt14default_deleteIS3_EEixEm(ptr noundef nonnull align 8 dereferenceable(8) %24, i64 noundef %26)
  %28 = getelementptr inbounds nuw %"struct.pxrInternal_v0_24__pxrReserved__::TfBigRWMutex::_LockState", ptr %27, i32 0, i32 0
  %29 = load i32, ptr %5, align 4
  %30 = sext i32 %29 to i64
  %31 = getelementptr inbounds [16 x i32], ptr %3, i64 0, i64 %30
  %32 = load i32, ptr %31, align 4
  %33 = call noundef i32 @_ZN32pxrInternal_v0_24__pxrReserved__13TfSpinRWMutex23_StagedAcquireWriteStepENS0_24_StagedAcquireWriteStateE(ptr noundef nonnull align 4 dereferenceable(4) %28, i32 noundef %32)
  %34 = load i32, ptr %5, align 4
  %35 = sext i32 %34 to i64
  %36 = getelementptr inbounds [16 x i32], ptr %3, i64 0, i64 %35
  store i32 %33, ptr %36, align 4
  %37 = load i32, ptr %5, align 4
  %38 = sext i32 %37 to i64
  %39 = getelementptr inbounds [16 x i32], ptr %3, i64 0, i64 %38
  %40 = load i32, ptr %39, align 4
  %41 = icmp eq i32 %40, 2
  %42 = zext i1 %41 to i32
  %43 = load i8, ptr %4, align 1
  %44 = trunc i8 %43 to i1
  %45 = zext i1 %44 to i32
  %46 = and i32 %45, %42
  %47 = icmp ne i32 %46, 0
  %48 = zext i1 %47 to i8
  store i8 %48, ptr %4, align 1
  br label %49

49:                                               ; preds = %23
  %50 = load i32, ptr %5, align 4
  %51 = add nsw i32 %50, 1
  store i32 %51, ptr %5, align 4
  br label %20, !llvm.loop !8

52:                                               ; preds = %20
  br label %53

53:                                               ; preds = %52
  %54 = load i8, ptr %4, align 1
  %55 = trunc i8 %54 to i1
  %56 = xor i1 %55, true
  br i1 %56, label %19, label %57, !llvm.loop !9

57:                                               ; preds = %53
  ret void
}