; Function Attrs: mustprogress uwtable
define void @_ZN32pxrInternal_v0_24__pxrReserved__12TfBigRWMutex13_AcquireWriteEv(ptr noundef nonnull align 8 captures(none) dereferenceable(9) %0) local_unnamed_addr #0 align 2 personality ptr @__gxx_personality_v0 {
  %2 = alloca [16 x i32], align 16
  %3 = getelementptr inbounds nuw i8, ptr %0, i64 8
  %4 = atomicrmw xchg ptr %3, i8 1 seq_cst, align 1
  %5 = trunc i8 %4 to i1
  br i1 %5, label %.preheader, label %._crit_edge

.preheader:                                       ; preds = %1, %.preheader.backedge
  %6 = tail call noundef i32 @sched_yield() #9
  %7 = load atomic i8, ptr %3 seq_cst, align 8
  %8 = trunc i8 %7 to i1
  br i1 %8, label %.preheader.backedge, label %9

.preheader.backedge:                              ; preds = %.preheader, %9
  br label %.preheader, !llvm.loop !9

9:                                                ; preds = %.preheader
  %10 = atomicrmw xchg ptr %3, i8 1 seq_cst, align 1
  %11 = trunc i8 %10 to i1
  br i1 %11, label %.preheader.backedge, label %._crit_edge

._crit_edge:                                      ; preds = %9, %1
  call void @llvm.memset.p0.i64(ptr noundef nonnull align 16 dereferenceable(64) %2, i8 0, i64 64, i1 false)
  br label %12

12:                                               ; preds = %_ZN32pxrInternal_v0_24__pxrReserved__13TfSpinRWMutex23_StagedAcquireWriteStepENS0_24_StagedAcquireWriteStateE.exit, %._crit_edge
  %indvars.iv = phi i64 [ %indvars.iv.next.mux, %_ZN32pxrInternal_v0_24__pxrReserved__13TfSpinRWMutex23_StagedAcquireWriteStepENS0_24_StagedAcquireWriteStateE.exit ], [ 0, %._crit_edge ]
  %.089 = phi i1 [ %.mux, %_ZN32pxrInternal_v0_24__pxrReserved__13TfSpinRWMutex23_StagedAcquireWriteStepENS0_24_StagedAcquireWriteStateE.exit ], [ true, %._crit_edge ]
  %13 = load ptr, ptr %0, align 8
  %14 = getelementptr inbounds nuw %"struct.pxrInternal_v0_24__pxrReserved__::TfBigRWMutex::_LockState", ptr %13, i64 %indvars.iv
  %15 = getelementptr inbounds nuw [16 x i32], ptr %2, i64 0, i64 %indvars.iv
  %16 = load i32, ptr %15, align 4
  switch i32 %16, label %_ZN32pxrInternal_v0_24__pxrReserved__13TfSpinRWMutex23_StagedAcquireWriteStepENS0_24_StagedAcquireWriteStateE.exit [
    i32 0, label %17
    i32 1, label %23
  ]

17:                                               ; preds = %12
  %18 = atomicrmw or ptr %14, i32 1 seq_cst, align 4
  %19 = and i32 %18, 1
  %.not.i = icmp eq i32 %19, 0
  br i1 %.not.i, label %20, label %_ZN32pxrInternal_v0_24__pxrReserved__13TfSpinRWMutex23_StagedAcquireWriteStepENS0_24_StagedAcquireWriteStateE.exit

20:                                               ; preds = %17
  %21 = icmp eq i32 %18, 0
  %22 = select i1 %21, i32 2, i32 1
  br label %_ZN32pxrInternal_v0_24__pxrReserved__13TfSpinRWMutex23_StagedAcquireWriteStepENS0_24_StagedAcquireWriteStateE.exit

23:                                               ; preds = %12
  tail call void @_ZNK32pxrInternal_v0_24__pxrReserved__13TfSpinRWMutex15_WaitForReadersEv(ptr noundef nonnull align 4 dereferenceable(4) %14)
  br label %_ZN32pxrInternal_v0_24__pxrReserved__13TfSpinRWMutex23_StagedAcquireWriteStepENS0_24_StagedAcquireWriteStateE.exit

_ZN32pxrInternal_v0_24__pxrReserved__13TfSpinRWMutex23_StagedAcquireWriteStepENS0_24_StagedAcquireWriteStateE.exit: ; preds = %12, %17, %20, %23
  %.013.i = phi i32 [ 2, %23 ], [ %22, %20 ], [ 0, %17 ], [ 2, %12 ]
  store i32 %.013.i, ptr %15, align 4
  %24 = icmp eq i32 %.013.i, 2
  %25 = and i1 %.089, %24
  %indvars.iv.next = add nuw nsw i64 %indvars.iv, 1
  %.not = icmp eq i64 %indvars.iv.next, 16
  %brmerge.not = select i1 %.not, i1 %25, i1 false
  %indvars.iv.next.mux = select i1 %.not, i64 0, i64 %indvars.iv.next
  %.mux = select i1 %.not, i1 true, i1 %25
  br i1 %brmerge.not, label %26, label %12, !llvm.loop !10

26:                                               ; preds = %_ZN32pxrInternal_v0_24__pxrReserved__13TfSpinRWMutex23_StagedAcquireWriteStepENS0_24_StagedAcquireWriteStateE.exit
  ret void
}